; Function Attrs: nounwind uwtable
define ptr @l_Lean_Elab_getDeclarationSelectionRef(ptr noundef %0) local_unnamed_addr #0 {
  %2 = load ptr, ptr @l_Lean_Elab_getDeclarationSelectionRef___closed__5, align 8, !tbaa !4
  %3 = ptrtoint ptr %0 to i64
  %4 = and i64 %3, 1
  %.not = icmp eq i64 %4, 0
  br i1 %.not, label %5, label %lean_inc.exit

5:                                                ; preds = %1
  %.val.i = load i32, ptr %0, align 4, !tbaa !8
  %6 = icmp sgt i32 %.val.i, 0
  br i1 %6, label %7, label %9, !prof !11

7:                                                ; preds = %5
  %8 = add nuw i32 %.val.i, 1
  store i32 %8, ptr %0, align 4, !tbaa !8
  br label %lean_inc.exit

9:                                                ; preds = %5
  %.not.i68 = icmp eq i32 %.val.i, 0
  br i1 %.not.i68, label %lean_inc.exit, label %10

10:                                               ; preds = %9
  tail call void @lean_inc_ref_cold(ptr noundef nonnull %0) #3
  br label %lean_inc.exit

lean_inc.exit:                                    ; preds = %10, %9, %7, %1
  %11 = tail call zeroext i8 @l_Lean_Syntax_isOfKind(ptr noundef %0, ptr noundef %2) #3
  %12 = icmp eq i8 %11, 0
  br i1 %12, label %13, label %75

13:                                               ; preds = %lean_inc.exit
  %14 = tail call ptr @l_Lean_Syntax_getArg(ptr noundef %0, ptr noundef nonnull inttoptr (i64 3 to ptr)) #3
  %15 = tail call ptr @l_Lean_Syntax_getArg(ptr noundef %14, ptr noundef nonnull inttoptr (i64 1 to ptr)) #3
  %16 = tail call zeroext i8 @l_Lean_Syntax_isIdent(ptr noundef %15) #3
  %17 = ptrtoint ptr %15 to i64
  %18 = and i64 %17, 1
  %.not71 = icmp eq i64 %18, 0
  br i1 %.not71, label %19, label %lean_dec.exit49

19:                                               ; preds = %13
  %20 = load i32, ptr %15, align 4, !tbaa !8
  %21 = icmp sgt i32 %20, 1
  br i1 %21, label %22, label %24, !prof !11

22:                                               ; preds = %19
  %23 = add nsw i32 %20, -1
  store i32 %23, ptr %15, align 4, !tbaa !8
  br label %lean_dec.exit49

24:                                               ; preds = %19
  %.not.i = icmp eq i32 %20, 0
  br i1 %.not.i, label %lean_dec.exit49, label %25

25:                                               ; preds = %24
  tail call void @lean_dec_ref_cold(ptr noundef nonnull %15) #3
  br label %lean_dec.exit49

lean_dec.exit49:                                  ; preds = %25, %24, %22, %13
  %26 = icmp eq i8 %16, 0
  br i1 %26, label %27, label %57

27:                                               ; preds = %lean_dec.exit49
  %28 = tail call zeroext i8 @l_Lean_Syntax_isIdent(ptr noundef %14) #3
  %29 = ptrtoint ptr %14 to i64
  %30 = and i64 %29, 1
  %.not73 = icmp eq i64 %30, 0
  br i1 %.not73, label %31, label %lean_dec.exit48

31:                                               ; preds = %27
  %32 = load i32, ptr %14, align 4, !tbaa !8
  %33 = icmp sgt i32 %32, 1
  br i1 %33, label %34, label %36, !prof !11

34:                                               ; preds = %31
  %35 = add nsw i32 %32, -1
  store i32 %35, ptr %14, align 4, !tbaa !8
  br label %lean_dec.exit48

36:                                               ; preds = %31
  %.not.i50 = icmp eq i32 %32, 0
  br i1 %.not.i50, label %lean_dec.exit48, label %37

37:                                               ; preds = %36
  tail call void @lean_dec_ref_cold(ptr noundef nonnull %14) #3
  br label %lean_dec.exit48

lean_dec.exit48:                                  ; preds = %37, %36, %34, %27
  %38 = icmp eq i8 %28, 0
  br i1 %38, label %39, label %48

39:                                               ; preds = %lean_dec.exit48
  %40 = tail call ptr @l_Lean_Syntax_getArg(ptr noundef %0, ptr noundef nonnull inttoptr (i64 1 to ptr)) #3
  br i1 %.not, label %41, label %lean_dec.exit47

41:                                               ; preds = %39
  %42 = load i32, ptr %0, align 4, !tbaa !8
  %43 = icmp sgt i32 %42, 1
  br i1 %43, label %44, label %46, !prof !11

44:                                               ; preds = %41
  %45 = add nsw i32 %42, -1
  store i32 %45, ptr %0, align 4, !tbaa !8
  br label %lean_dec.exit47

46:                                               ; preds = %41
  %.not.i52 = icmp eq i32 %42, 0
  br i1 %.not.i52, label %lean_dec.exit47, label %47

47:                                               ; preds = %46
  tail call void @lean_dec_ref_cold(ptr noundef nonnull %0) #3
  br label %lean_dec.exit47

48:                                               ; preds = %lean_dec.exit48
  %49 = tail call ptr @l_Lean_Syntax_getArg(ptr noundef %0, ptr noundef nonnull inttoptr (i64 3 to ptr)) #3
  br i1 %.not, label %50, label %lean_dec.exit47

50:                                               ; preds = %48
  %51 = load i32, ptr %0, align 4, !tbaa !8
  %52 = icmp sgt i32 %51, 1
  br i1 %52, label %53, label %55, !prof !11

53:                                               ; preds = %50
  %54 = add nsw i32 %51, -1
  store i32 %54, ptr %0, align 4, !tbaa !8
  br label %lean_dec.exit47

55:                                               ; preds = %50
  %.not.i54 = icmp eq i32 %51, 0
  br i1 %.not.i54, label %lean_dec.exit47, label %56

56:                                               ; preds = %55
  tail call void @lean_dec_ref_cold(ptr noundef nonnull %0) #3
  br label %lean_dec.exit47

57:                                               ; preds = %lean_dec.exit49
  br i1 %.not, label %58, label %lean_dec.exit45

58:                                               ; preds = %57
  %59 = load i32, ptr %0, align 4, !tbaa !8
  %60 = icmp sgt i32 %59, 1
  br i1 %60, label %61, label %63, !prof !11

61:                                               ; preds = %58
  %62 = add nsw i32 %59, -1
  store i32 %62, ptr %0, align 4, !tbaa !8
  br label %lean_dec.exit45

63:                                               ; preds = %58
  %.not.i56 = icmp eq i32 %59, 0
  br i1 %.not.i56, label %lean_dec.exit45, label %64

64:                                               ; preds = %63
  tail call void @lean_dec_ref_cold(ptr noundef nonnull %0) #3
  br label %lean_dec.exit45

lean_dec.exit45:                                  ; preds = %64, %63, %61, %57
  %65 = tail call ptr @l_Lean_Syntax_getArg(ptr noundef %14, ptr noundef nonnull inttoptr (i64 1 to ptr)) #3
  %66 = ptrtoint ptr %14 to i64
  %67 = and i64 %66, 1
  %.not72 = icmp eq i64 %67, 0
  br i1 %.not72, label %68, label %lean_dec.exit47

68:                                               ; preds = %lean_dec.exit45
  %69 = load i32, ptr %14, align 4, !tbaa !8
  %70 = icmp sgt i32 %69, 1
  br i1 %70, label %71, label %73, !prof !11

71:                                               ; preds = %68
  %72 = add nsw i32 %69, -1
  store i32 %72, ptr %14, align 4, !tbaa !8
  br label %lean_dec.exit47

73:                                               ; preds = %68
  %.not.i58 = icmp eq i32 %69, 0
  br i1 %.not.i58, label %lean_dec.exit47, label %74

74:                                               ; preds = %73
  tail call void @lean_dec_ref_cold(ptr noundef nonnull %14) #3
  br label %lean_dec.exit47

75:                                               ; preds = %lean_inc.exit
  %76 = tail call ptr @l_Lean_Syntax_getArg(ptr noundef %0, ptr noundef nonnull inttoptr (i64 7 to ptr)) #3
  %77 = tail call zeroext i8 @l_Lean_Syntax_isNone(ptr noundef %76) #3
  %78 = icmp eq i8 %77, 0
  br i1 %78, label %79, label %97

79:                                               ; preds = %75
  br i1 %.not, label %80, label %lean_dec.exit43

80:                                               ; preds = %79
  %81 = load i32, ptr %0, align 4, !tbaa !8
  %82 = icmp sgt i32 %81, 1
  br i1 %82, label %83, label %85, !prof !11

83:                                               ; preds = %80
  %84 = add nsw i32 %81, -1
  store i32 %84, ptr %0, align 4, !tbaa !8
  br label %lean_dec.exit43

85:                                               ; preds = %80
  %.not.i60 = icmp eq i32 %81, 0
  br i1 %.not.i60, label %lean_dec.exit43, label %86

86:                                               ; preds = %85
  tail call void @lean_dec_ref_cold(ptr noundef nonnull %0) #3
  br label %lean_dec.exit43

lean_dec.exit43:                                  ; preds = %86, %85, %83, %79
  %87 = tail call ptr @l_Lean_Syntax_getArg(ptr noundef %76, ptr noundef nonnull inttoptr (i64 1 to ptr)) #3
  %88 = ptrtoint ptr %76 to i64
  %89 = and i64 %88, 1
  %.not70 = icmp eq i64 %89, 0
  br i1 %.not70, label %90, label %lean_dec.exit47

90:                                               ; preds = %lean_dec.exit43
  %91 = load i32, ptr %76, align 4, !tbaa !8
  %92 = icmp sgt i32 %91, 1
  br i1 %92, label %93, label %95, !prof !11

93:                                               ; preds = %90
  %94 = add nsw i32 %91, -1
  store i32 %94, ptr %76, align 4, !tbaa !8
  br label %lean_dec.exit47

95:                                               ; preds = %90
  %.not.i62 = icmp eq i32 %91, 0
  br i1 %.not.i62, label %lean_dec.exit47, label %96

96:                                               ; preds = %95
  tail call void @lean_dec_ref_cold(ptr noundef nonnull %76) #3
  br label %lean_dec.exit47

97:                                               ; preds = %75
  %98 = ptrtoint ptr %76 to i64
  %99 = and i64 %98, 1
  %.not69 = icmp eq i64 %99, 0
  br i1 %.not69, label %100, label %lean_dec.exit41

100:                                              ; preds = %97
  %101 = load i32, ptr %76, align 4, !tbaa !8
  %102 = icmp sgt i32 %101, 1
  br i1 %102, label %103, label %105, !prof !11

103:                                              ; preds = %100
  %104 = add nsw i32 %101, -1
  store i32 %104, ptr %76, align 4, !tbaa !8
  br label %lean_dec.exit41

105:                                              ; preds = %100
  %.not.i64 = icmp eq i32 %101, 0
  br i1 %.not.i64, label %lean_dec.exit41, label %106

106:                                              ; preds = %105
  tail call void @lean_dec_ref_cold(ptr noundef nonnull %76) #3
  br label %lean_dec.exit41

lean_dec.exit41:                                  ; preds = %106, %105, %103, %97
  %107 = tail call ptr @l_Lean_Syntax_getArg(ptr noundef %0, ptr noundef nonnull inttoptr (i64 3 to ptr)) #3
  br i1 %.not, label %108, label %lean_dec.exit47

108:                                              ; preds = %lean_dec.exit41
  %109 = load i32, ptr %0, align 4, !tbaa !8
  %110 = icmp sgt i32 %109, 1
  br i1 %110, label %111, label %113, !prof !11

111:                                              ; preds = %108
  %112 = add nsw i32 %109, -1
  store i32 %112, ptr %0, align 4, !tbaa !8
  br label %lean_dec.exit47

113:                                              ; preds = %108
  %.not.i66 = icmp eq i32 %109, 0
  br i1 %.not.i66, label %lean_dec.exit47, label %114

114:                                              ; preds = %113
  tail call void @lean_dec_ref_cold(ptr noundef nonnull %0) #3
  br label %lean_dec.exit47

lean_dec.exit47:                                  ; preds = %lean_dec.exit41, %111, %113, %114, %lean_dec.exit43, %93, %95, %96, %lean_dec.exit45, %71, %73, %74, %48, %53, %55, %56, %39, %44, %46, %47
  %.2 = phi ptr [ %40, %47 ], [ %40, %46 ], [ %40, %44 ], [ %40, %39 ], [ %49, %56 ], [ %49, %55 ], [ %49, %53 ], [ %49, %48 ], [ %65, %74 ], [ %65, %73 ], [ %65, %71 ], [ %65, %lean_dec.exit45 ], [ %87, %96 ], [ %87, %95 ], [ %87, %93 ], [ %87, %lean_dec.exit43 ], [ %107, %114 ], [ %107, %113 ], [ %107, %111 ], [ %107, %lean_dec.exit41 ]
  ret ptr %.2
}